target datalayout = "e-m:e-p270:32:32-p271:32:32-p272:64:64-i64:64-i128:128-f80:128-n8:16:32:64-S128"
target triple = "x86_64-pc-linux-gnu"

%struct.expert_field = type { i32, i32 }

@hf_docsis_tlv_unknown = internal global i32 0, align 4
@hf_docsis_tlv_unknown_type = internal global i32 0, align 4
@hf_docsis_tlv_unknown_length = internal global i32 0, align 4
@hf_docsis_tlv_unknown_value = internal global i32 0, align 4
@ett_docsis_tlv_unknown = internal global i32 0, align 4
@ei_docsis_tlv_tlvlen_bad = internal global %struct.expert_field zeroinitializer, align 4
@.str.1091 = private unnamed_addr constant [34 x i8] c"Unknown TLV: total length < 2: %u\00", align 1
@.str.1092 = private unnamed_addr constant [24 x i8] c" (Type: %d, Length: %d)\00", align 1
@.str.1093 = private unnamed_addr constant [34 x i8] c"Unknown TLV: Wrong TLV length: %u\00", align 1

; Function Attrs: null_pointer_is_valid sspstrong uwtable
define internal void @dissect_unknown_tlv(ptr noundef %0, ptr noundef %1, ptr noundef %2, i32 noundef %3, i16 noundef zeroext %4) #1 {
  %6 = alloca ptr, align 8
  %7 = alloca ptr, align 8
  %8 = alloca ptr, align 8
  %9 = alloca i32, align 4
  %10 = alloca i16, align 2
  %11 = alloca i32, align 4
  %12 = alloca i32, align 4
  %13 = alloca ptr, align 8
  %14 = alloca ptr, align 8
  %15 = alloca i32, align 4
  store ptr %0, ptr %6, align 8
  store ptr %1, ptr %7, align 8
  store ptr %2, ptr %8, align 8
  store i32 %3, ptr %9, align 4
  store i16 %4, ptr %10, align 2
  call void @llvm.lifetime.start.p0(i64 4, ptr %11) #4
  call void @llvm.lifetime.start.p0(i64 4, ptr %12) #4
  call void @llvm.lifetime.start.p0(i64 8, ptr %13) #4
  call void @llvm.lifetime.start.p0(i64 8, ptr %14) #4
  %16 = load ptr, ptr %8, align 8
  %17 = load i32, ptr @hf_docsis_tlv_unknown, align 4
  %18 = load ptr, ptr %6, align 8
  %19 = load i32, ptr %9, align 4
  %20 = load i16, ptr %10, align 2
  %21 = zext i16 %20 to i32
  %22 = call ptr @proto_tree_add_item(ptr noundef %16, i32 noundef %17, ptr noundef %18, i32 noundef %19, i32 noundef %21, i32 noundef 0)
  store ptr %22, ptr %14, align 8
  %23 = load ptr, ptr %14, align 8
  %24 = load i32, ptr @ett_docsis_tlv_unknown, align 4
  %25 = call ptr @proto_item_add_subtree(ptr noundef %23, i32 noundef %24)
  store ptr %25, ptr %13, align 8
  %26 = load i16, ptr %10, align 2
  %27 = zext i16 %26 to i32
  %28 = icmp slt i32 %27, 2
  br i1 %28, label %29, label %35

29:                                               ; preds = %5
  %30 = load ptr, ptr %7, align 8
  %31 = load ptr, ptr %14, align 8
  %32 = load i16, ptr %10, align 2
  %33 = zext i16 %32 to i32
  %34 = call ptr (ptr, ptr, ptr, ptr, ...) @expert_add_info_format(ptr noundef %30, ptr noundef %31, ptr noundef @ei_docsis_tlv_tlvlen_bad, ptr noundef @.str.1091, i32 noundef %33)
  store i32 1, ptr %15, align 4
  br label %70

35:                                               ; preds = %5
  %36 = load ptr, ptr %13, align 8
  %37 = load i32, ptr @hf_docsis_tlv_unknown_type, align 4
  %38 = load ptr, ptr %6, align 8
  %39 = load i32, ptr %9, align 4
  %40 = call ptr @proto_tree_add_item_ret_uint(ptr noundef %36, i32 noundef %37, ptr noundef %38, i32 noundef %39, i32 noundef 1, i32 noundef 0, ptr noundef %11)
  %41 = load ptr, ptr %13, align 8
  %42 = load i32, ptr @hf_docsis_tlv_unknown_length, align 4
  %43 = load ptr, ptr %6, align 8
  %44 = load i32, ptr %9, align 4
  %45 = add i32 %44, 1
  %46 = call ptr @proto_tree_add_item_ret_uint(ptr noundef %41, i32 noundef %42, ptr noundef %43, i32 noundef %45, i32 noundef 1, i32 noundef 0, ptr noundef %12)
  %47 = load ptr, ptr %14, align 8
  %48 = load i32, ptr %11, align 4
  %49 = load i32, ptr %12, align 4
  call void (ptr, ptr, ...) @proto_item_append_text(ptr noundef %47, ptr noundef @.str.1092, i32 noundef %48, i32 noundef %49)
  %50 = load i32, ptr %12, align 4
  %51 = add i32 %50, 2
  %52 = load i16, ptr %10, align 2
  %53 = zext i16 %52 to i32
  %54 = icmp ne i32 %51, %53
  br i1 %54, label %55, label %60

55:                                               ; preds = %35
  %56 = load ptr, ptr %7, align 8
  %57 = load ptr, ptr %14, align 8
  %58 = load i32, ptr %12, align 4
  %59 = call ptr (ptr, ptr, ptr, ptr, ...) @expert_add_info_format(ptr noundef %56, ptr noundef %57, ptr noundef @ei_docsis_tlv_tlvlen_bad, ptr noundef @.str.1093, i32 noundef %58)
  store i32 1, ptr %15, align 4
  br label %70

60:                                               ; preds = %35
  %61 = load ptr, ptr %13, align 8
  %62 = load i32, ptr @hf_docsis_tlv_unknown_value, align 4
  %63 = load ptr, ptr %6, align 8
  %64 = load i32, ptr %9, align 4
  %65 = add i32 %64, 2
  %66 = load i16, ptr %10, align 2
  %67 = zext i16 %66 to i32
  %68 = sub i32 %67, 2
  %69 = call ptr @proto_tree_add_item(ptr noundef %61, i32 noundef %62, ptr noundef %63, i32 noundef %65, i32 noundef %68, i32 noundef 0)
  store i32 0, ptr %15, align 4
  br label %70

70:                                               ; preds = %60, %55, %29
  call void @llvm.lifetime.end.p0(i64 8, ptr %14) #4
  call void @llvm.lifetime.end.p0(i64 8, ptr %13) #4
  call void @llvm.lifetime.end.p0(i64 4, ptr %12) #4
  call void @llvm.lifetime.end.p0(i64 4, ptr %11) #4
  %71 = load i32, ptr %15, align 4
  switch i32 %71, label %73 [
    i32 0, label %72
    i32 1, label %72
  ]

72:                                               ; preds = %70, %70
  ret void

73:                                               ; preds = %70
  unreachable
}