; Function Attrs: null_pointer_is_valid sspstrong uwtable
define internal fastcc void @dissect_unknown_tlv(ptr noundef %0, ptr noundef %1, ptr noundef %2, i32 noundef %3, i16 noundef zeroext range(i16 2, 258) %4) unnamed_addr #1 {
  %6 = alloca i32, align 4
  %7 = alloca i32, align 4
  call void @llvm.lifetime.start.p0(i64 4, ptr nonnull %6) #5
  call void @llvm.lifetime.start.p0(i64 4, ptr nonnull %7) #5
  %8 = load i32, ptr @hf_docsis_tlv_unknown, align 4
  %9 = zext nneg i16 %4 to i32
  %10 = tail call ptr @proto_tree_add_item(ptr noundef %2, i32 noundef %8, ptr noundef %0, i32 noundef %3, i32 noundef %9, i32 noundef 0)
  %11 = load i32, ptr @ett_docsis_tlv_unknown, align 4
  %12 = tail call ptr @proto_item_add_subtree(ptr noundef %10, i32 noundef %11)
  %13 = load i32, ptr @hf_docsis_tlv_unknown_type, align 4
  %14 = call ptr @proto_tree_add_item_ret_uint(ptr noundef %12, i32 noundef %13, ptr noundef %0, i32 noundef %3, i32 noundef 1, i32 noundef 0, ptr noundef nonnull %6)
  %15 = load i32, ptr @hf_docsis_tlv_unknown_length, align 4
  %16 = add i32 %3, 1
  %17 = call ptr @proto_tree_add_item_ret_uint(ptr noundef %12, i32 noundef %15, ptr noundef %0, i32 noundef %16, i32 noundef 1, i32 noundef 0, ptr noundef nonnull %7)
  %18 = load i32, ptr %6, align 4
  %19 = load i32, ptr %7, align 4
  call void (ptr, ptr, ...) @proto_item_append_text(ptr noundef %10, ptr noundef nonnull @.str.1092, i32 noundef %18, i32 noundef %19)
  %20 = load i32, ptr %7, align 4
  %21 = add i32 %20, 2
  %.not = icmp eq i32 %21, %9
  br i1 %.not, label %24, label %22

22:                                               ; preds = %5
  %23 = call ptr (ptr, ptr, ptr, ptr, ...) @expert_add_info_format(ptr noundef %1, ptr noundef %10, ptr noundef nonnull @ei_docsis_tlv_tlvlen_bad, ptr noundef nonnull @.str.1093, i32 noundef %20)
  br label %29

24:                                               ; preds = %5
  %25 = load i32, ptr @hf_docsis_tlv_unknown_value, align 4
  %26 = add i32 %3, 2
  %27 = add nsw i32 %9, -2
  %28 = call ptr @proto_tree_add_item(ptr noundef %12, i32 noundef %25, ptr noundef %0, i32 noundef %26, i32 noundef %27, i32 noundef 0)
  br label %29

29:                                               ; preds = %24, %22
  call void @llvm.lifetime.end.p0(i64 4, ptr nonnull %7) #5
  call void @llvm.lifetime.end.p0(i64 4, ptr nonnull %6) #5
  ret void
}